; Function Attrs: mustprogress uwtable
define dso_local void @_ZN10btSoftBody18appendAngularJointERKNS_6AJoint5SpecsEPS_(ptr nocapture noundef nonnull align 8 dereferenceable(2064) %this, ptr nocapture noundef nonnull readonly align 8 dereferenceable(40) %specs, ptr nocapture noundef readonly %body) local_unnamed_addr #4 align 2 {
entry:
  %agg.tmp = alloca %"struct.btSoftBody::Body", align 8
  %m_data.i = getelementptr inbounds i8, ptr %this, i64 1760
  %0 = load ptr, ptr %m_data.i, align 8
  %1 = load ptr, ptr %0, align 8
  %m_data.i1 = getelementptr inbounds i8, ptr %body, i64 1760
  %2 = load ptr, ptr %m_data.i1, align 8
  %3 = load ptr, ptr %2, align 8
  store ptr %3, ptr %agg.tmp, align 8
  %m_rigid.i = getelementptr inbounds i8, ptr %agg.tmp, i64 8
  call void @llvm.memset.p0.i64(ptr noundef nonnull align 8 dereferenceable(16) %m_rigid.i, i8 0, i64 16, i1 false)
  tail call void @_ZN10btSoftBody18appendAngularJointERKNS_6AJoint5SpecsEPNS_7ClusterENS_4BodyE(ptr noundef nonnull align 8 dereferenceable(2064) %this, ptr noundef nonnull align 8 dereferenceable(40) %specs, ptr noundef %1, ptr noundef nonnull byval(%"struct.btSoftBody::Body") align 8 %agg.tmp)
  ret void
}